; Function Attrs: mustprogress nofree norecurse nosync nounwind willreturn memory(read, argmem: readwrite, inaccessiblemem: none) uwtable
define range(i32 -1094995529, 1) i32 @ff_bgmc_decode_init(ptr noundef captures(none) %0, ptr noundef writeonly captures(none) %1, ptr noundef writeonly captures(none) %2, ptr noundef writeonly captures(none) %3) local_unnamed_addr #3 {
  %5 = getelementptr i8, ptr %0, i64 16
  %.val = load i32, ptr %5, align 8, !tbaa !11
  %6 = getelementptr i8, ptr %0, i64 20
  %.val5 = load i32, ptr %6, align 4, !tbaa !14
  %7 = sub nsw i32 %.val5, %.val
  %8 = icmp slt i32 %7, 18
  br i1 %8, label %24, label %9

9:                                                ; preds = %4
  store i32 262143, ptr %1, align 4, !tbaa !15
  store i32 0, ptr %2, align 4, !tbaa !15
  %10 = load i32, ptr %5, align 8, !tbaa !11
  %11 = getelementptr inbounds nuw i8, ptr %0, i64 24
  %12 = load i32, ptr %11, align 8, !tbaa !16
  %13 = load ptr, ptr %0, align 8, !tbaa !17
  %14 = lshr i32 %10, 3
  %15 = zext nneg i32 %14 to i64
  %16 = getelementptr inbounds nuw i8, ptr %13, i64 %15
  %17 = load i32, ptr %16, align 1, !tbaa !18
  %18 = tail call i32 @llvm.bswap.i32(i32 %17)
  %19 = and i32 %10, 7
  %20 = shl i32 %18, %19
  %21 = lshr i32 %20, 14
  %22 = add i32 %10, 18
  %23 = tail call i32 @llvm.umin.i32(i32 %12, i32 %22)
  store i32 %23, ptr %5, align 8, !tbaa !11
  store i32 %21, ptr %3, align 4, !tbaa !15
  br label %24

24:                                               ; preds = %4, %9
  %.0 = phi i32 [ 0, %9 ], [ -1094995529, %4 ]
  ret i32 %.0
}